target datalayout = "e-m:e-p270:32:32-p271:32:32-p272:64:64-i64:64-i128:128-f80:128-n8:16:32:64-S128"
target triple = "x86_64-pc-linux-gnu"

; Function Attrs: nounwind uwtable
define internal void @ps_mul_pair_single_c(ptr noalias noundef %0, ptr noundef %1, ptr noundef %2, i32 noundef %3) #1 {
  %5 = alloca ptr, align 8
  %6 = alloca ptr, align 8
  %7 = alloca ptr, align 8
  %8 = alloca i32, align 4
  %9 = alloca i32, align 4
  store ptr %0, ptr %5, align 8, !tbaa !17
  store ptr %1, ptr %6, align 8, !tbaa !17
  store ptr %2, ptr %7, align 8, !tbaa !17
  store i32 %3, ptr %8, align 4, !tbaa !19
  call void @llvm.lifetime.start.p0(i64 4, ptr %9) #4
  store i32 0, ptr %9, align 4, !tbaa !19
  br label %10

10:                                               ; preds = %50, %4
  %11 = load i32, ptr %9, align 4, !tbaa !19
  %12 = load i32, ptr %8, align 4, !tbaa !19
  %13 = icmp slt i32 %11, %12
  br i1 %13, label %15, label %14

14:                                               ; preds = %10
  call void @llvm.lifetime.end.p0(i64 4, ptr %9) #4
  br label %53

15:                                               ; preds = %10
  %16 = load ptr, ptr %6, align 8, !tbaa !17
  %17 = load i32, ptr %9, align 4, !tbaa !19
  %18 = sext i32 %17 to i64
  %19 = getelementptr inbounds [2 x float], ptr %16, i64 %18
  %20 = getelementptr inbounds [2 x float], ptr %19, i64 0, i64 0
  %21 = load float, ptr %20, align 4, !tbaa !21
  %22 = load ptr, ptr %7, align 8, !tbaa !17
  %23 = load i32, ptr %9, align 4, !tbaa !19
  %24 = sext i32 %23 to i64
  %25 = getelementptr inbounds float, ptr %22, i64 %24
  %26 = load float, ptr %25, align 4, !tbaa !21
  %27 = fmul nsz float %21, %26
  %28 = load ptr, ptr %5, align 8, !tbaa !17
  %29 = load i32, ptr %9, align 4, !tbaa !19
  %30 = sext i32 %29 to i64
  %31 = getelementptr inbounds [2 x float], ptr %28, i64 %30
  %32 = getelementptr inbounds [2 x float], ptr %31, i64 0, i64 0
  store float %27, ptr %32, align 4, !tbaa !21
  %33 = load ptr, ptr %6, align 8, !tbaa !17
  %34 = load i32, ptr %9, align 4, !tbaa !19
  %35 = sext i32 %34 to i64
  %36 = getelementptr inbounds [2 x float], ptr %33, i64 %35
  %37 = getelementptr inbounds [2 x float], ptr %36, i64 0, i64 1
  %38 = load float, ptr %37, align 4, !tbaa !21
  %39 = load ptr, ptr %7, align 8, !tbaa !17
  %40 = load i32, ptr %9, align 4, !tbaa !19
  %41 = sext i32 %40 to i64
  %42 = getelementptr inbounds float, ptr %39, i64 %41
  %43 = load float, ptr %42, align 4, !tbaa !21
  %44 = fmul nsz float %38, %43
  %45 = load ptr, ptr %5, align 8, !tbaa !17
  %46 = load i32, ptr %9, align 4, !tbaa !19
  %47 = sext i32 %46 to i64
  %48 = getelementptr inbounds [2 x float], ptr %45, i64 %47
  %49 = getelementptr inbounds [2 x float], ptr %48, i64 0, i64 1
  store float %44, ptr %49, align 4, !tbaa !21
  br label %50

50:                                               ; preds = %15
  %51 = load i32, ptr %9, align 4, !tbaa !19
  %52 = add nsw i32 %51, 1
  store i32 %52, ptr %9, align 4, !tbaa !19
  br label %10, !llvm.loop !25

53:                                               ; preds = %14
  ret void
}