; Function Attrs: nofree norecurse nosync nounwind memory(argmem: readwrite) uwtable
define internal void @ps_mul_pair_single_c(ptr noalias noundef writeonly captures(none) %0, ptr noundef readonly captures(none) %1, ptr noundef readonly captures(none) %2, i32 noundef %3) #1 {
  %5 = icmp sgt i32 %3, 0
  br i1 %5, label %.lr.ph.preheader, label %._crit_edge

.lr.ph.preheader:                                 ; preds = %4
  %wide.trip.count = zext nneg i32 %3 to i64
  br label %.lr.ph

._crit_edge:                                      ; preds = %.lr.ph, %4
  ret void

.lr.ph:                                           ; preds = %.lr.ph.preheader, %.lr.ph
  %indvars.iv = phi i64 [ 0, %.lr.ph.preheader ], [ %indvars.iv.next, %.lr.ph ]
  %6 = getelementptr inbounds nuw [2 x float], ptr %1, i64 %indvars.iv
  %7 = load float, ptr %6, align 4, !tbaa !15
  %8 = getelementptr inbounds nuw float, ptr %2, i64 %indvars.iv
  %9 = load float, ptr %8, align 4, !tbaa !15
  %10 = fmul nsz float %7, %9
  %11 = getelementptr inbounds nuw [2 x float], ptr %0, i64 %indvars.iv
  store float %10, ptr %11, align 4, !tbaa !15
  %12 = getelementptr inbounds nuw i8, ptr %6, i64 4
  %13 = load float, ptr %12, align 4, !tbaa !15
  %14 = fmul nsz float %9, %13
  %15 = getelementptr inbounds nuw i8, ptr %11, i64 4
  store float %14, ptr %15, align 4, !tbaa !15
  %indvars.iv.next = add nuw nsw i64 %indvars.iv, 1
  %exitcond.not = icmp eq i64 %indvars.iv.next, %wide.trip.count
  br i1 %exitcond.not, label %._crit_edge, label %.lr.ph, !llvm.loop !19
}